; ModuleID = '50/1763.c'
source_filename = "50/1763.c"
target datalayout = "e-m:e-p270:32:32-p271:32:32-p272:64:64-i64:64-f80:128-n8:16:32:64-S128"
target triple = "x86_64-pc-linux-gnu"

@.str = private unnamed_addr constant [3 x i8] c"%d\00", align 1
@.str.1 = private unnamed_addr constant [3 x i8] c"1\0A\00", align 1
@.str.2 = private unnamed_addr constant [4 x i8] c"%d\0A\00", align 1

; Function Attrs: noinline nounwind uwtable
define dso_local i32 @main() #0 {
  %1 = alloca i32, align 4
  %2 = alloca i32, align 4
  %3 = alloca i32, align 4
  %4 = alloca i32, align 4
  %5 = alloca i32, align 4
  store i32 0, i32* %1, align 4
  store i32 0, i32* %4, align 4
  %6 = call i32 (i8*, ...) @__isoc99_scanf(i8* getelementptr inbounds ([3 x i8], [3 x i8]* @.str, i64 0, i64 0), i32* %2)
  %7 = load i32, i32* %2, align 4
  %8 = add nsw i32 13, %7
  %9 = sub nsw i32 %8, 1
  %10 = srem i32 %9, 7
  %11 = icmp eq i32 %10, 5
  br i1 %11, label %12, label %14

12:                                               ; preds = %0
  %13 = call i32 (i8*, ...) @printf(i8* getelementptr inbounds ([3 x i8], [3 x i8]* @.str.1, i64 0, i64 0))
  br label %14

14:                                               ; preds = %12, %0
  store i32 2, i32* %5, align 4
  br label %15

15:                                               ; preds = %74, %14
  %16 = load i32, i32* %5, align 4
  %17 = icmp sle i32 %16, 12
  br i1 %17, label %18, label %77

18:                                               ; preds = %15
  store i32 0, i32* %4, align 4
  store i32 1, i32* %3, align 4
  br label %19

19:                                               ; preds = %58, %18
  %20 = load i32, i32* %3, align 4
  %21 = load i32, i32* %5, align 4
  %22 = icmp slt i32 %20, %21
  br i1 %22, label %23, label %61

23:                                               ; preds = %19
  %24 = load i32, i32* %3, align 4
  %25 = icmp eq i32 %24, 1
  br i1 %25, label %44, label %26

26:                                               ; preds = %23
  %27 = load i32, i32* %3, align 4
  %28 = icmp eq i32 %27, 3
  br i1 %28, label %44, label %29

29:                                               ; preds = %26
  %30 = load i32, i32* %3, align 4
  %31 = icmp eq i32 %30, 5
  br i1 %31, label %44, label %32

32:                                               ; preds = %29
  %33 = load i32, i32* %3, align 4
  %34 = icmp eq i32 %33, 7
  br i1 %34, label %44, label %35

35:                                               ; preds = %32
  %36 = load i32, i32* %3, align 4
  %37 = icmp eq i32 %36, 8
  br i1 %37, label %44, label %38

38:                                               ; preds = %35
  %39 = load i32, i32* %3, align 4
  %40 = icmp eq i32 %39, 10
  br i1 %40, label %44, label %41

41:                                               ; preds = %38
  %42 = load i32, i32* %3, align 4
  %43 = icmp eq i32 %42, 12
  br i1 %43, label %44, label %47

44:                                               ; preds = %41, %38, %35, %32, %29, %26, %23
  %45 = load i32, i32* %4, align 4
  %46 = add nsw i32 %45, 31
  store i32 %46, i32* %4, align 4
  br label %57

47:                                               ; preds = %41
  %48 = load i32, i32* %3, align 4
  %49 = icmp eq i32 %48, 2
  br i1 %49, label %50, label %53

50:                                               ; preds = %47
  %51 = load i32, i32* %4, align 4
  %52 = add nsw i32 %51, 28
  store i32 %52, i32* %4, align 4
  br label %56

53:                                               ; preds = %47
  %54 = load i32, i32* %4, align 4
  %55 = add nsw i32 %54, 30
  store i32 %55, i32* %4, align 4
  br label %56

56:                                               ; preds = %53, %50
  br label %57

57:                                               ; preds = %56, %44
  br label %58

58:                                               ; preds = %57
  %59 = load i32, i32* %3, align 4
  %60 = add nsw i32 %59, 1
  store i32 %60, i32* %3, align 4
  br label %19

61:                                               ; preds = %19
  %62 = load i32, i32* %4, align 4
  %63 = add nsw i32 %62, 13
  store i32 %63, i32* %4, align 4
  %64 = load i32, i32* %4, align 4
  %65 = load i32, i32* %2, align 4
  %66 = add nsw i32 %64, %65
  %67 = sub nsw i32 %66, 1
  %68 = srem i32 %67, 7
  %69 = icmp eq i32 %68, 5
  br i1 %69, label %70, label %73

70:                                               ; preds = %61
  %71 = load i32, i32* %5, align 4
  %72 = call i32 (i8*, ...) @printf(i8* getelementptr inbounds ([4 x i8], [4 x i8]* @.str.2, i64 0, i64 0), i32 %71)
  br label %73

73:                                               ; preds = %70, %61
  br label %74

74:                                               ; preds = %73
  %75 = load i32, i32* %5, align 4
  %76 = add nsw i32 %75, 1
  store i32 %76, i32* %5, align 4
  br label %15

77:                                               ; preds = %15
  ret i32 0
}

declare dso_local i32 @__isoc99_scanf(i8*, ...) #1

declare dso_local i32 @printf(i8*, ...) #1


!llvm.module.flags = !{!0}
!llvm.ident = !{!1}

!0 = !{i32 1, !"wchar_size", i32 4}
!1 = !{!"clang version 10.0.0-4ubuntu1 "}
